target datalayout = "e-m:e-p270:32:32-p271:32:32-p272:64:64-i64:64-i128:128-f80:128-n8:16:32:64-S128"
target triple = "x86_64-pc-linux-gnu"

%struct.evconnlistener_event = type { %struct.evconnlistener, %struct.event }
%struct.evconnlistener = type { ptr, ptr, ptr, ptr, ptr, i32, i16, i32, i8 }
%struct.event = type { %struct.event_callback, %union.anon.0, i32, i16, i16, ptr, %union.anon.2, %struct.timeval }
%struct.event_callback = type { %struct.anon, i16, i8, i8, %union.anon, ptr }
%struct.anon = type { ptr, ptr }
%union.anon = type { ptr }
%union.anon.0 = type { %struct.anon.1 }
%struct.anon.1 = type { ptr, ptr }
%union.anon.2 = type { %struct.anon.3 }
%struct.anon.3 = type { %struct.anon.4, %struct.timeval }
%struct.anon.4 = type { ptr, ptr }
%struct.timeval = type { i64, i64 }

; Function Attrs: nounwind uwtable
define internal void @event_listener_destroy(ptr noundef %0) #0 {
  %2 = alloca ptr, align 8
  %3 = alloca ptr, align 8
  store ptr %0, ptr %2, align 8
  call void @llvm.lifetime.start.p0(i64 8, ptr %3) #5
  %4 = load ptr, ptr %2, align 8
  %5 = getelementptr inbounds i8, ptr %4, i64 0
  store ptr %5, ptr %3, align 8
  %6 = load ptr, ptr %3, align 8
  %7 = getelementptr inbounds nuw %struct.evconnlistener_event, ptr %6, i32 0, i32 1
  %8 = call i32 @event_del(ptr noundef %7)
  %9 = load ptr, ptr %2, align 8
  %10 = getelementptr inbounds nuw %struct.evconnlistener, ptr %9, i32 0, i32 5
  %11 = load i32, ptr %10, align 8
  %12 = and i32 %11, 2
  %13 = icmp ne i32 %12, 0
  br i1 %13, label %14, label %19

14:                                               ; preds = %1
  %15 = load ptr, ptr %3, align 8
  %16 = getelementptr inbounds nuw %struct.evconnlistener_event, ptr %15, i32 0, i32 1
  %17 = call i32 @event_get_fd(ptr noundef %16)
  %18 = call i32 @evutil_closesocket(i32 noundef %17)
  br label %19

19:                                               ; preds = %14, %1
  %20 = load ptr, ptr %3, align 8
  %21 = getelementptr inbounds nuw %struct.evconnlistener_event, ptr %20, i32 0, i32 1
  call void @event_debug_unassign(ptr noundef %21)
  call void @llvm.lifetime.end.p0(i64 8, ptr %3) #5
  ret void
}