; Function Attrs: nounwind uwtable
define internal void @event_listener_destroy(ptr noundef %0) #0 {
  %2 = getelementptr inbounds nuw i8, ptr %0, i64 56
  %3 = tail call i32 @event_del(ptr noundef nonnull %2) #6
  %4 = getelementptr inbounds nuw i8, ptr %0, i64 40
  %5 = load i32, ptr %4, align 8
  %6 = and i32 %5, 2
  %.not = icmp eq i32 %6, 0
  br i1 %.not, label %10, label %7

7:                                                ; preds = %1
  %8 = tail call i32 @event_get_fd(ptr noundef nonnull %2) #6
  %9 = tail call i32 @evutil_closesocket(i32 noundef %8) #6
  br label %10

10:                                               ; preds = %7, %1
  tail call void @event_debug_unassign(ptr noundef nonnull %2) #6
  ret void
}